target datalayout = "e-m:e-p270:32:32-p271:32:32-p272:64:64-i64:64-i128:128-f80:128-n8:16:32:64-S128"
target triple = "x86_64-pc-linux-gnu"

%class.V3GraphVertex = type { ptr, %class.V3ListLinks, %class.V3List, %class.V3List.0, double, i32, i32, %union.anon }
%class.V3ListLinks = type { ptr, ptr }
%class.V3List = type { ptr, ptr }
%class.V3List.0 = type { ptr, ptr }
%union.anon = type { ptr }
%class.V3GraphEdge = type { ptr, %class.V3ListLinks.2, %class.V3ListLinks.2, ptr, ptr, i32, i8, %union.anon.3 }
%class.V3ListLinks.2 = type { ptr, ptr }
%union.anon.3 = type { ptr }

; Function Attrs: alwaysinline mustprogress uwtable
define linkonce_odr dso_local noundef nonnull align 8 dereferenceable(16) ptr @_ZN6V3ListI11V3GraphEdgeXadL_ZNS0_6iLinksEvEES0_E7toLinksEPKS0_(ptr noundef %0) #8 comdat align 2 {
  %2 = alloca ptr, align 8
  store ptr %0, ptr %2, align 8, !tbaa !41
  %3 = load ptr, ptr %2, align 8, !tbaa !41
  %4 = getelementptr inbounds i8, ptr %3, i64 0
  br i1 false, label %5, label %9

5:                                                ; preds = %1
  %6 = load ptr, ptr %4, align 8, !tbaa !11
  %7 = getelementptr i8, ptr %6, i64 sub (i64 ptrtoint (ptr @_ZN11V3GraphEdge6iLinksEv to i64), i64 1), !nosanitize !65
  %8 = load ptr, ptr %7, align 8, !nosanitize !65
  br label %10

9:                                                ; preds = %1
  br label %10

10:                                               ; preds = %9, %5
  %11 = phi ptr [ %8, %5 ], [ @_ZN11V3GraphEdge6iLinksEv, %9 ]
  %12 = call noundef nonnull align 8 dereferenceable(16) ptr %11(ptr noundef nonnull align 8 dereferenceable(72) %4)
  ret ptr %12
}

; Function Attrs: mustprogress uwtable
define linkonce_odr dso_local void @_ZN6V3ListI11V3GraphEdgeXadL_ZNS0_6iLinksEvEES0_E8linkBackEPKS0_(ptr noundef nonnull align 8 dereferenceable(16) %0, ptr noundef %1) #4 comdat align 2 {
  %3 = alloca ptr, align 8
  %4 = alloca ptr, align 8
  %5 = alloca ptr, align 8
  store ptr %0, ptr %3, align 8, !tbaa !32
  store ptr %1, ptr %4, align 8, !tbaa !41
  %6 = load ptr, ptr %3, align 8
  call void @llvm.lifetime.start.p0(i64 8, ptr %5) #3
  %7 = load ptr, ptr %4, align 8, !tbaa !41
  %8 = call noundef nonnull align 8 dereferenceable(16) ptr @_ZN6V3ListI11V3GraphEdgeXadL_ZNS0_6iLinksEvEES0_E7toLinksEPKS0_(ptr noundef %7)
  store ptr %8, ptr %5, align 8, !tbaa !88
  %9 = load ptr, ptr %5, align 8, !tbaa !88
  %10 = getelementptr inbounds nuw %class.V3ListLinks.2, ptr %9, i32 0, i32 0
  store ptr null, ptr %10, align 8, !tbaa !90
  %11 = getelementptr inbounds nuw %class.V3List.0, ptr %6, i32 0, i32 1
  %12 = load ptr, ptr %11, align 8, !tbaa !35
  %13 = load ptr, ptr %5, align 8, !tbaa !88
  %14 = getelementptr inbounds nuw %class.V3ListLinks.2, ptr %13, i32 0, i32 1
  store ptr %12, ptr %14, align 8, !tbaa !91
  %15 = getelementptr inbounds nuw %class.V3List.0, ptr %6, i32 0, i32 1
  %16 = load ptr, ptr %15, align 8, !tbaa !35
  %17 = icmp ne ptr %16, null
  br i1 %17, label %18, label %24

18:                                               ; preds = %2
  %19 = load ptr, ptr %4, align 8, !tbaa !41
  %20 = getelementptr inbounds nuw %class.V3List.0, ptr %6, i32 0, i32 1
  %21 = load ptr, ptr %20, align 8, !tbaa !35
  %22 = call noundef nonnull align 8 dereferenceable(16) ptr @_ZN6V3ListI11V3GraphEdgeXadL_ZNS0_6iLinksEvEES0_E7toLinksEPKS0_(ptr noundef %21)
  %23 = getelementptr inbounds nuw %class.V3ListLinks.2, ptr %22, i32 0, i32 0
  store ptr %19, ptr %23, align 8, !tbaa !90
  br label %24

24:                                               ; preds = %18, %2
  %25 = load ptr, ptr %4, align 8, !tbaa !41
  %26 = getelementptr inbounds nuw %class.V3List.0, ptr %6, i32 0, i32 1
  store ptr %25, ptr %26, align 8, !tbaa !35
  %27 = getelementptr inbounds nuw %class.V3List.0, ptr %6, i32 0, i32 0
  %28 = load ptr, ptr %27, align 8, !tbaa !34
  %29 = icmp ne ptr %28, null
  br i1 %29, label %34, label %30

30:                                               ; preds = %24
  %31 = getelementptr inbounds nuw %class.V3List.0, ptr %6, i32 0, i32 1
  %32 = load ptr, ptr %31, align 8, !tbaa !35
  %33 = getelementptr inbounds nuw %class.V3List.0, ptr %6, i32 0, i32 0
  store ptr %32, ptr %33, align 8, !tbaa !34
  br label %34

34:                                               ; preds = %30, %24
  call void @llvm.lifetime.end.p0(i64 8, ptr %5) #3
  ret void
}

; Function Attrs: mustprogress uwtable
define linkonce_odr dso_local void @_ZN6V3ListI11V3GraphEdgeXadL_ZNS0_6iLinksEvEES0_E6unlinkEPKS0_(ptr noundef nonnull align 8 dereferenceable(16) %0, ptr noundef %1) #4 comdat align 2 {
  %3 = alloca ptr, align 8
  %4 = alloca ptr, align 8
  %5 = alloca ptr, align 8
  store ptr %0, ptr %3, align 8, !tbaa !32
  store ptr %1, ptr %4, align 8, !tbaa !41
  %6 = load ptr, ptr %3, align 8
  call void @llvm.lifetime.start.p0(i64 8, ptr %5) #3
  %7 = load ptr, ptr %4, align 8, !tbaa !41
  %8 = call noundef nonnull align 8 dereferenceable(16) ptr @_ZN6V3ListI11V3GraphEdgeXadL_ZNS0_6iLinksEvEES0_E7toLinksEPKS0_(ptr noundef %7)
  store ptr %8, ptr %5, align 8, !tbaa !88
  %9 = load ptr, ptr %5, align 8, !tbaa !88
  %10 = getelementptr inbounds nuw %class.V3ListLinks.2, ptr %9, i32 0, i32 0
  %11 = load ptr, ptr %10, align 8, !tbaa !90
  %12 = icmp ne ptr %11, null
  br i1 %12, label %13, label %22

13:                                               ; preds = %2
  %14 = load ptr, ptr %5, align 8, !tbaa !88
  %15 = getelementptr inbounds nuw %class.V3ListLinks.2, ptr %14, i32 0, i32 1
  %16 = load ptr, ptr %15, align 8, !tbaa !91
  %17 = load ptr, ptr %5, align 8, !tbaa !88
  %18 = getelementptr inbounds nuw %class.V3ListLinks.2, ptr %17, i32 0, i32 0
  %19 = load ptr, ptr %18, align 8, !tbaa !90
  %20 = call noundef nonnull align 8 dereferenceable(16) ptr @_ZN6V3ListI11V3GraphEdgeXadL_ZNS0_6iLinksEvEES0_E7toLinksEPKS0_(ptr noundef %19)
  %21 = getelementptr inbounds nuw %class.V3ListLinks.2, ptr %20, i32 0, i32 1
  store ptr %16, ptr %21, align 8, !tbaa !91
  br label %22

22:                                               ; preds = %13, %2
  %23 = load ptr, ptr %5, align 8, !tbaa !88
  %24 = getelementptr inbounds nuw %class.V3ListLinks.2, ptr %23, i32 0, i32 1
  %25 = load ptr, ptr %24, align 8, !tbaa !91
  %26 = icmp ne ptr %25, null
  br i1 %26, label %27, label %36

27:                                               ; preds = %22
  %28 = load ptr, ptr %5, align 8, !tbaa !88
  %29 = getelementptr inbounds nuw %class.V3ListLinks.2, ptr %28, i32 0, i32 0
  %30 = load ptr, ptr %29, align 8, !tbaa !90
  %31 = load ptr, ptr %5, align 8, !tbaa !88
  %32 = getelementptr inbounds nuw %class.V3ListLinks.2, ptr %31, i32 0, i32 1
  %33 = load ptr, ptr %32, align 8, !tbaa !91
  %34 = call noundef nonnull align 8 dereferenceable(16) ptr @_ZN6V3ListI11V3GraphEdgeXadL_ZNS0_6iLinksEvEES0_E7toLinksEPKS0_(ptr noundef %33)
  %35 = getelementptr inbounds nuw %class.V3ListLinks.2, ptr %34, i32 0, i32 0
  store ptr %30, ptr %35, align 8, !tbaa !90
  br label %36

36:                                               ; preds = %27, %22
  %37 = getelementptr inbounds nuw %class.V3List.0, ptr %6, i32 0, i32 0
  %38 = load ptr, ptr %37, align 8, !tbaa !34
  %39 = load ptr, ptr %4, align 8, !tbaa !41
  %40 = icmp eq ptr %38, %39
  br i1 %40, label %41, label %46

41:                                               ; preds = %36
  %42 = load ptr, ptr %5, align 8, !tbaa !88
  %43 = getelementptr inbounds nuw %class.V3ListLinks.2, ptr %42, i32 0, i32 0
  %44 = load ptr, ptr %43, align 8, !tbaa !90
  %45 = getelementptr inbounds nuw %class.V3List.0, ptr %6, i32 0, i32 0
  store ptr %44, ptr %45, align 8, !tbaa !34
  br label %46

46:                                               ; preds = %41, %36
  %47 = getelementptr inbounds nuw %class.V3List.0, ptr %6, i32 0, i32 1
  %48 = load ptr, ptr %47, align 8, !tbaa !35
  %49 = load ptr, ptr %4, align 8, !tbaa !41
  %50 = icmp eq ptr %48, %49
  br i1 %50, label %51, label %56

51:                                               ; preds = %46
  %52 = load ptr, ptr %5, align 8, !tbaa !88
  %53 = getelementptr inbounds nuw %class.V3ListLinks.2, ptr %52, i32 0, i32 1
  %54 = load ptr, ptr %53, align 8, !tbaa !91
  %55 = getelementptr inbounds nuw %class.V3List.0, ptr %6, i32 0, i32 1
  store ptr %54, ptr %55, align 8, !tbaa !35
  br label %56

56:                                               ; preds = %51, %46
  %57 = load ptr, ptr %5, align 8, !tbaa !88
  %58 = getelementptr inbounds nuw %class.V3ListLinks.2, ptr %57, i32 0, i32 1
  store ptr null, ptr %58, align 8, !tbaa !91
  %59 = load ptr, ptr %5, align 8, !tbaa !88
  %60 = getelementptr inbounds nuw %class.V3ListLinks.2, ptr %59, i32 0, i32 0
  store ptr null, ptr %60, align 8, !tbaa !90
  call void @llvm.lifetime.end.p0(i64 8, ptr %5) #3
  ret void
}

; Function Attrs: mustprogress nounwind uwtable
define linkonce_odr dso_local noundef nonnull align 8 dereferenceable(16) ptr @_ZN13V3GraphVertex7inEdgesEv(ptr noundef nonnull align 8 dereferenceable(80) %0) #5 comdat align 2 {
  %2 = alloca ptr, align 8
  store ptr %0, ptr %2, align 8, !tbaa !4
  %3 = load ptr, ptr %2, align 8
  %4 = getelementptr inbounds nuw %class.V3GraphVertex, ptr %3, i32 0, i32 3
  ret ptr %4
}

; Function Attrs: mustprogress uwtable
define dso_local void @_ZN11V3GraphEdge9relinkTopEP13V3GraphVertex(ptr noundef nonnull align 8 dereferenceable(72) %0, ptr noundef %1) #4 align 2 {
  %3 = alloca ptr, align 8
  %4 = alloca ptr, align 8
  store ptr %0, ptr %3, align 8, !tbaa !41
  store ptr %1, ptr %4, align 8, !tbaa !4
  %5 = load ptr, ptr %3, align 8
  %6 = getelementptr inbounds nuw %class.V3GraphEdge, ptr %5, i32 0, i32 4
  %7 = load ptr, ptr %6, align 8, !tbaa !50
  %8 = call noundef nonnull align 8 dereferenceable(16) ptr @_ZN13V3GraphVertex7inEdgesEv(ptr noundef nonnull align 8 dereferenceable(80) %7)
  call void @_ZN6V3ListI11V3GraphEdgeXadL_ZNS0_6iLinksEvEES0_E6unlinkEPKS0_(ptr noundef nonnull align 8 dereferenceable(16) %8, ptr noundef %5)
  %9 = load ptr, ptr %4, align 8, !tbaa !4
  %10 = getelementptr inbounds nuw %class.V3GraphEdge, ptr %5, i32 0, i32 4
  store ptr %9, ptr %10, align 8, !tbaa !50
  %11 = getelementptr inbounds nuw %class.V3GraphEdge, ptr %5, i32 0, i32 4
  %12 = load ptr, ptr %11, align 8, !tbaa !50
  %13 = call noundef nonnull align 8 dereferenceable(16) ptr @_ZN13V3GraphVertex7inEdgesEv(ptr noundef nonnull align 8 dereferenceable(80) %12)
  call void @_ZN6V3ListI11V3GraphEdgeXadL_ZNS0_6iLinksEvEES0_E8linkBackEPKS0_(ptr noundef nonnull align 8 dereferenceable(16) %13, ptr noundef %5)
  ret void
}